; Function Attrs: nounwind uwtable
define dso_local range(i32 -1, 1) i32 @PyType_ClearWatcher(i32 noundef %0) local_unnamed_addr #1 {
  %or.cond.i = icmp ugt i32 %0, 7
  br i1 %or.cond.i, label %validate_watcher_id.exit.thread, label %2

2:                                                ; preds = %1
  %3 = tail call align 8 ptr @llvm.threadlocal.address.p0(ptr align 8 @_Py_tss_tstate)
  %4 = load ptr, ptr %3, align 8, !tbaa !22
  %5 = getelementptr inbounds nuw i8, ptr %4, i64 16
  %6 = load ptr, ptr %5, align 8, !tbaa !24
  %7 = getelementptr inbounds nuw i8, ptr %6, i64 10832
  %8 = zext nneg i32 %0 to i64
  %9 = getelementptr [8 x ptr], ptr %7, i64 0, i64 %8
  %10 = load ptr, ptr %9, align 8, !tbaa !111
  %.not.i = icmp eq ptr %10, null
  br i1 %.not.i, label %validate_watcher_id.exit.thread, label %validate_watcher_id.exit

validate_watcher_id.exit.thread:                  ; preds = %1, %2
  %.str.48.sink.i = phi ptr [ @.str.47, %1 ], [ @.str.48, %2 ]
  %11 = load ptr, ptr @PyExc_ValueError, align 8, !tbaa !105
  %12 = tail call ptr (ptr, ptr, ...) @PyErr_Format(ptr noundef %11, ptr noundef nonnull %.str.48.sink.i, i32 noundef %0) #24
  br label %13

validate_watcher_id.exit:                         ; preds = %2
  store ptr null, ptr %9, align 8, !tbaa !111
  br label %13

13:                                               ; preds = %validate_watcher_id.exit.thread, %validate_watcher_id.exit
  %.0 = phi i32 [ 0, %validate_watcher_id.exit ], [ -1, %validate_watcher_id.exit.thread ]
  ret i32 %.0
}